; Function Attrs: nounwind sspstrong uwtable
define internal i64 @ossl_ssl_tmp_key(i64 noundef %0) #0 {
  %2 = alloca ptr, align 8
  call void @llvm.lifetime.start.p0(i64 8, ptr nonnull %2) #9
  %3 = tail call ptr @rb_check_typeddata(i64 noundef %0, ptr noundef nonnull @ossl_ssl_type) #9
  %.not = icmp eq ptr %3, null
  br i1 %.not, label %4, label %6

4:                                                ; preds = %1
  %5 = load i64, ptr @rb_eRuntimeError, align 8, !tbaa !10
  tail call void (i64, ptr, ...) @ossl_raise(i64 noundef %5, ptr noundef nonnull @.str.267) #10
  unreachable

6:                                                ; preds = %1
  %7 = call i64 @SSL_ctrl(ptr noundef nonnull %3, i32 noundef 109, i64 noundef 0, ptr noundef nonnull %2) #9
  %.not4 = icmp eq i64 %7, 0
  br i1 %.not4, label %11, label %8

8:                                                ; preds = %6
  %9 = load ptr, ptr %2, align 8, !tbaa !44
  %10 = call i64 @ossl_pkey_new(ptr noundef %9) #9
  br label %11

11:                                               ; preds = %6, %8
  %.0 = phi i64 [ %10, %8 ], [ 4, %6 ]
  call void @llvm.lifetime.end.p0(i64 8, ptr nonnull %2) #9
  ret i64 %.0
}